target datalayout = "e-m:e-p270:32:32-p271:32:32-p272:64:64-i64:64-i128:128-f80:128-n8:16:32:64-S128"
target triple = "x86_64-pc-linux-gnu"

; Function Attrs: nounwind uwtable
define i32 @Xz_ParseHeader(ptr noundef %0, ptr noundef %1) #0 {
  %3 = alloca i32, align 4
  %4 = alloca ptr, align 8
  %5 = alloca ptr, align 8
  store ptr %0, ptr %4, align 8
  store ptr %1, ptr %5, align 8
  %6 = load ptr, ptr %5, align 8
  %7 = getelementptr inbounds i8, ptr %6, i64 6
  %8 = getelementptr inbounds i8, ptr %7, i64 0
  %9 = load i8, ptr %8, align 1
  %10 = zext i8 %9 to i16
  %11 = zext i16 %10 to i32
  %12 = shl i32 %11, 8
  %13 = load ptr, ptr %5, align 8
  %14 = getelementptr inbounds i8, ptr %13, i64 6
  %15 = getelementptr inbounds i8, ptr %14, i64 1
  %16 = load i8, ptr %15, align 1
  %17 = zext i8 %16 to i32
  %18 = or i32 %12, %17
  %19 = trunc i32 %18 to i16
  %20 = load ptr, ptr %4, align 8
  store i16 %19, ptr %20, align 2
  %21 = load ptr, ptr %5, align 8
  %22 = getelementptr inbounds i8, ptr %21, i64 6
  %23 = call i32 @CrcCalc(ptr noundef %22, i64 noundef 2)
  %24 = load ptr, ptr %5, align 8
  %25 = getelementptr inbounds i8, ptr %24, i64 6
  %26 = getelementptr inbounds i8, ptr %25, i64 2
  %27 = load i32, ptr %26, align 1
  %28 = icmp ne i32 %23, %27
  br i1 %28, label %29, label %30

29:                                               ; preds = %2
  store i32 17, ptr %3, align 4
  br label %36

30:                                               ; preds = %2
  %31 = load ptr, ptr %4, align 8
  %32 = load i16, ptr %31, align 2
  %33 = zext i16 %32 to i32
  %34 = icmp sle i32 %33, 15
  %35 = select i1 %34, i32 0, i32 4
  store i32 %35, ptr %3, align 4
  br label %36

36:                                               ; preds = %30, %29
  %37 = load i32, ptr %3, align 4
  ret i32 %37
}