; Function Attrs: nounwind uwtable
define range(i32 0, 18) i32 @Xz_ParseHeader(ptr noundef captures(none) initializes((0, 2)) %0, ptr noundef %1) local_unnamed_addr #1 {
  %3 = getelementptr inbounds nuw i8, ptr %1, i64 6
  %4 = load i8, ptr %3, align 1
  %5 = zext i8 %4 to i16
  %6 = shl nuw i16 %5, 8
  %7 = getelementptr inbounds nuw i8, ptr %1, i64 7
  %8 = load i8, ptr %7, align 1
  %9 = zext i8 %8 to i16
  %10 = or disjoint i16 %6, %9
  store i16 %10, ptr %0, align 2
  %11 = tail call i32 @CrcCalc(ptr noundef nonnull %3, i64 noundef 2) #10
  %12 = getelementptr inbounds nuw i8, ptr %1, i64 8
  %13 = load i32, ptr %12, align 1
  %.not = icmp eq i32 %11, %13
  br i1 %.not, label %14, label %18

14:                                               ; preds = %2
  %15 = load i16, ptr %0, align 2
  %16 = icmp ult i16 %15, 16
  %17 = select i1 %16, i32 0, i32 4
  br label %18

18:                                               ; preds = %2, %14
  %.0 = phi i32 [ %17, %14 ], [ 17, %2 ]
  ret i32 %.0
}